target datalayout = "e-m:e-p270:32:32-p271:32:32-p272:64:64-i64:64-i128:128-f80:128-n8:16:32:64-S128"
target triple = "x86_64-pc-linux-gnu"

%"class.tbb::detail::r1::thread_dispatcher" = type { %"class.tbb::detail::r1::rml::tbb_client", %"class.tbb::detail::d1::rw_mutex", [3 x %"class.tbb::detail::r1::intrusive_list"], ptr, i8, ptr, %"struct.std::atomic.0", i32, i64, %"struct.std::atomic.2", ptr }
%"class.tbb::detail::r1::rml::tbb_client" = type { %"class.rml::client" }
%"class.rml::client" = type { %"class.rml::versioned_object" }
%"class.rml::versioned_object" = type { ptr }
%"class.tbb::detail::d1::rw_mutex" = type { %"struct.std::atomic" }
%"struct.std::atomic" = type { %"struct.std::__atomic_base" }
%"struct.std::__atomic_base" = type { i64 }
%"class.tbb::detail::r1::intrusive_list" = type { %"class.tbb::detail::r1::intrusive_list_base" }
%"class.tbb::detail::r1::intrusive_list_base" = type { %"struct.tbb::detail::d1::intrusive_list_node", i64 }
%"struct.tbb::detail::d1::intrusive_list_node" = type { ptr, ptr }
%"struct.std::atomic.0" = type { %"struct.std::__atomic_base.1" }
%"struct.std::__atomic_base.1" = type { i64 }
%"struct.std::atomic.2" = type { %"struct.std::__atomic_base.3" }
%"struct.std::__atomic_base.3" = type { i32 }

; Function Attrs: mustprogress sspstrong uwtable
define void @_ZN3tbb6detail2r117thread_dispatcher25adjust_job_count_estimateEi(ptr noundef nonnull align 8 dereferenceable(152) %0, i32 noundef %1) #0 align 2 {
  %3 = alloca ptr, align 8
  %4 = alloca i32, align 4
  store ptr %0, ptr %3, align 8, !tbaa !3
  store i32 %1, ptr %4, align 4, !tbaa !10
  %5 = load ptr, ptr %3, align 8
  %6 = getelementptr inbounds nuw %"class.tbb::detail::r1::thread_dispatcher", ptr %5, i32 0, i32 10
  %7 = load ptr, ptr %6, align 8, !tbaa !34
  %8 = load i32, ptr %4, align 4, !tbaa !10
  %9 = load ptr, ptr %7, align 8, !tbaa !14
  %10 = getelementptr inbounds ptr, ptr %9, i64 7
  %11 = load ptr, ptr %10, align 8
  call void %11(ptr noundef nonnull align 8 dereferenceable(8) %7, i32 noundef %8)
  ret void
}