; Function Attrs: mustprogress sspstrong uwtable
define void @_ZN3tbb6detail2r117thread_dispatcher25adjust_job_count_estimateEi(ptr noundef nonnull readonly align 8 captures(none) dereferenceable(152) %0, i32 noundef %1) local_unnamed_addr #0 align 2 {
  %3 = getelementptr inbounds nuw i8, ptr %0, i64 144
  %4 = load ptr, ptr %3, align 8, !tbaa !38
  %5 = load ptr, ptr %4, align 8, !tbaa !3
  %6 = getelementptr inbounds nuw i8, ptr %5, i64 56
  %7 = load ptr, ptr %6, align 8
  tail call void %7(ptr noundef nonnull align 8 dereferenceable(8) %4, i32 noundef %1)
  ret void
}